target datalayout = "e-m:e-p270:32:32-p271:32:32-p272:64:64-i64:64-i128:128-f80:128-n8:16:32:64-S128"
target triple = "x86_64-pc-linux-gnu"

@.str.39 = private unnamed_addr constant [27 x i8] c"standard %s file is closed\00", align 1
@fnames = internal constant [2 x ptr] [ptr @.str.34, ptr @.str.36], align 16

; Function Attrs: nounwind uwtable
define internal ptr @getiofile(ptr noundef %0, i32 noundef %1) #0 {
  %3 = alloca ptr, align 8
  %4 = alloca i32, align 4
  %5 = alloca ptr, align 8
  store ptr %0, ptr %3, align 8, !tbaa !4
  store i32 %1, ptr %4, align 4, !tbaa !14
  call void @llvm.lifetime.start.p0(i64 8, ptr %5) #6
  %6 = load ptr, ptr %3, align 8, !tbaa !4
  %7 = load i32, ptr %4, align 4, !tbaa !14
  call void @lua_rawgeti(ptr noundef %6, i32 noundef -10001, i32 noundef %7)
  %8 = load ptr, ptr %3, align 8, !tbaa !4
  %9 = call ptr @lua_touserdata(ptr noundef %8, i32 noundef -1)
  %10 = load ptr, ptr %9, align 8, !tbaa !9
  store ptr %10, ptr %5, align 8, !tbaa !9
  %11 = load ptr, ptr %5, align 8, !tbaa !9
  %12 = icmp eq ptr %11, null
  br i1 %12, label %13, label %21

13:                                               ; preds = %2
  %14 = load ptr, ptr %3, align 8, !tbaa !4
  %15 = load i32, ptr %4, align 4, !tbaa !14
  %16 = sub nsw i32 %15, 1
  %17 = sext i32 %16 to i64
  %18 = getelementptr inbounds [2 x ptr], ptr @fnames, i64 0, i64 %17
  %19 = load ptr, ptr %18, align 8, !tbaa !16
  %20 = call i32 (ptr, ptr, ...) @luaL_error(ptr noundef %14, ptr noundef @.str.39, ptr noundef %19)
  br label %21

21:                                               ; preds = %13, %2
  %22 = load ptr, ptr %5, align 8, !tbaa !9
  call void @llvm.lifetime.end.p0(i64 8, ptr %5) #6
  ret ptr %22
}

; Function Attrs: nounwind uwtable
define internal i32 @io_read(ptr noundef %0) #0 {
  %2 = alloca ptr, align 8
  store ptr %0, ptr %2, align 8, !tbaa !4
  %3 = load ptr, ptr %2, align 8, !tbaa !4
  %4 = load ptr, ptr %2, align 8, !tbaa !4
  %5 = call ptr @getiofile(ptr noundef %4, i32 noundef 1)
  %6 = call i32 @g_read(ptr noundef %3, ptr noundef %5, i32 noundef 1)
  ret i32 %6
}